target datalayout = "e-m:e-p270:32:32-p271:32:32-p272:64:64-i64:64-i128:128-f80:128-n8:16:32:64-S128"
target triple = "x86_64-pc-linux-gnu"

@PyExc_TypeError = external global ptr, align 8
@.str.21 = private unnamed_addr constant [36 x i8] c"flock expected 2 arguments, got %zd\00", align 1

; Function Attrs: nounwind uwtable
define internal ptr @fcntl_flock(ptr noundef %0, ptr noundef %1, i64 noundef %2) #0 {
  %4 = alloca ptr, align 8
  %5 = alloca ptr, align 8
  %6 = alloca i64, align 8
  %7 = alloca ptr, align 8
  %8 = alloca i32, align 4
  %9 = alloca i32, align 4
  store ptr %0, ptr %4, align 8, !tbaa !3
  store ptr %1, ptr %5, align 8, !tbaa !8
  store i64 %2, ptr %6, align 8, !tbaa !10
  call void @llvm.lifetime.start.p0(i64 8, ptr %7) #7
  store ptr null, ptr %7, align 8, !tbaa !3
  call void @llvm.lifetime.start.p0(i64 4, ptr %8) #7
  call void @llvm.lifetime.start.p0(i64 4, ptr %9) #7
  %10 = load i64, ptr %6, align 8, !tbaa !10
  %11 = icmp ne i64 %10, 2
  br i1 %11, label %12, label %16

12:                                               ; preds = %3
  %13 = load ptr, ptr @PyExc_TypeError, align 8, !tbaa !3
  %14 = load i64, ptr %6, align 8, !tbaa !10
  %15 = call ptr (ptr, ptr, ...) @PyErr_Format(ptr noundef %13, ptr noundef @.str.21, i64 noundef %14)
  br label %40

16:                                               ; preds = %3
  %17 = load ptr, ptr %5, align 8, !tbaa !8
  %18 = getelementptr ptr, ptr %17, i64 0
  %19 = load ptr, ptr %18, align 8, !tbaa !3
  %20 = call i32 @PyObject_AsFileDescriptor(ptr noundef %19)
  store i32 %20, ptr %8, align 4, !tbaa !12
  %21 = load i32, ptr %8, align 4, !tbaa !12
  %22 = icmp slt i32 %21, 0
  br i1 %22, label %23, label %24

23:                                               ; preds = %16
  br label %40

24:                                               ; preds = %16
  %25 = load ptr, ptr %5, align 8, !tbaa !8
  %26 = getelementptr ptr, ptr %25, i64 1
  %27 = load ptr, ptr %26, align 8, !tbaa !3
  %28 = call i32 @PyLong_AsInt(ptr noundef %27)
  store i32 %28, ptr %9, align 4, !tbaa !12
  %29 = load i32, ptr %9, align 4, !tbaa !12
  %30 = icmp eq i32 %29, -1
  br i1 %30, label %31, label %35

31:                                               ; preds = %24
  %32 = call ptr @PyErr_Occurred()
  %33 = icmp ne ptr %32, null
  br i1 %33, label %34, label %35

34:                                               ; preds = %31
  br label %40

35:                                               ; preds = %31, %24
  %36 = load ptr, ptr %4, align 8, !tbaa !3
  %37 = load i32, ptr %8, align 4, !tbaa !12
  %38 = load i32, ptr %9, align 4, !tbaa !12
  %39 = call ptr @fcntl_flock_impl(ptr noundef %36, i32 noundef %37, i32 noundef %38)
  store ptr %39, ptr %7, align 8, !tbaa !3
  br label %40

40:                                               ; preds = %35, %34, %23, %12
  %41 = load ptr, ptr %7, align 8, !tbaa !3
  call void @llvm.lifetime.end.p0(i64 4, ptr %9) #7
  call void @llvm.lifetime.end.p0(i64 4, ptr %8) #7
  call void @llvm.lifetime.end.p0(i64 8, ptr %7) #7
  ret ptr %41
}