; Function Attrs: nounwind uwtable
define internal ptr @fcntl_flock(ptr readnone captures(none) %0, ptr noundef readonly captures(none) %1, i64 noundef %2) #0 {
  %.not = icmp eq i64 %2, 2
  br i1 %.not, label %7, label %4

4:                                                ; preds = %3
  %5 = load ptr, ptr @PyExc_TypeError, align 8, !tbaa !3
  %6 = tail call ptr (ptr, ptr, ...) @PyErr_Format(ptr noundef %5, ptr noundef nonnull @.str.21, i64 noundef %2) #7
  br label %20

7:                                                ; preds = %3
  %8 = load ptr, ptr %1, align 8, !tbaa !3
  %9 = tail call i32 @PyObject_AsFileDescriptor(ptr noundef %8) #7
  %10 = icmp slt i32 %9, 0
  br i1 %10, label %20, label %11

11:                                               ; preds = %7
  %12 = getelementptr i8, ptr %1, i64 8
  %13 = load ptr, ptr %12, align 8, !tbaa !3
  %14 = tail call i32 @PyLong_AsInt(ptr noundef %13) #7
  %15 = icmp eq i32 %14, -1
  br i1 %15, label %17, label %.split

.split:                                           ; preds = %11
  %16 = tail call fastcc ptr @fcntl_flock_impl(i32 noundef %9, i32 noundef %14)
  br label %20

17:                                               ; preds = %11
  %18 = tail call ptr @PyErr_Occurred() #7
  %.not13 = icmp eq ptr %18, null
  br i1 %.not13, label %.split9, label %20

.split9:                                          ; preds = %17
  %19 = tail call fastcc ptr @fcntl_flock_impl(i32 noundef %9, i32 noundef -1)
  br label %20

20:                                               ; preds = %.split, %.split9, %17, %7, %4
  %.0 = phi ptr [ null, %4 ], [ null, %7 ], [ null, %17 ], [ %16, %.split ], [ %19, %.split9 ]
  ret ptr %.0
}